; Function Attrs: nounwind sspstrong uwtable
define internal i64 @tm_to_time(i64 noundef %0) #1 {
  %2 = tail call ptr @rb_check_typeddata(i64 noundef %0, ptr noundef nonnull @time_data_type) #21
  %3 = getelementptr inbounds nuw i8, ptr %2, i64 40
  %4 = load i64, ptr %3, align 8
  %5 = and i64 %4, 61572651155456
  %.not.i = icmp eq i64 %5, 26388279066624
  br i1 %.not.i, label %6, label %get_timeval.exit

6:                                                ; preds = %1
  %7 = load i64, ptr @rb_eTypeError, align 8, !tbaa !11
  %8 = tail call i64 @rb_obj_class(i64 noundef %0) #21
  tail call void (i64, ptr, ...) @rb_raise(i64 noundef %7, ptr noundef nonnull @.str.92, i64 noundef %8) #22
  unreachable

get_timeval.exit:                                 ; preds = %1
  %9 = load i64, ptr @rb_cTime, align 8, !tbaa !11
  %10 = tail call i64 @rb_data_typed_object_zalloc(i64 noundef %9, i64 noundef 48, ptr noundef nonnull @time_data_type) #21
  %11 = inttoptr i64 %10 to ptr
  %12 = getelementptr inbounds nuw i8, ptr %11, i64 24
  %13 = load i64, ptr %12, align 8, !tbaa !20
  %14 = and i64 %13, 2
  %.not.i.i = icmp eq i64 %14, 0
  %15 = getelementptr i8, ptr %11, i64 32
  br i1 %.not.i.i, label %16, label %time_s_alloc.exit

16:                                               ; preds = %get_timeval.exit
  %17 = load ptr, ptr %15, align 8, !tbaa !24
  br label %time_s_alloc.exit

time_s_alloc.exit:                                ; preds = %get_timeval.exit, %16
  %18 = phi ptr [ %17, %16 ], [ %15, %get_timeval.exit ]
  %19 = getelementptr inbounds nuw i8, ptr %18, i64 40
  %20 = load i64, ptr %19, align 8
  %21 = and i64 %20, -131941395333121
  %22 = or disjoint i64 %21, 26388279066624
  store i64 %22, ptr %19, align 8
  store i64 1, ptr %18, align 8, !tbaa !25
  %23 = getelementptr inbounds nuw i8, ptr %18, i64 32
  store i64 4, ptr %23, align 8, !tbaa !29
  %24 = load i64, ptr %12, align 8, !tbaa !20
  %25 = and i64 %24, 2
  %.not.i4 = icmp eq i64 %25, 0
  br i1 %.not.i4, label %26, label %RTYPEDDATA_GET_DATA.exit

26:                                               ; preds = %time_s_alloc.exit
  %27 = load ptr, ptr %15, align 8, !tbaa !24
  br label %RTYPEDDATA_GET_DATA.exit

RTYPEDDATA_GET_DATA.exit:                         ; preds = %time_s_alloc.exit, %26
  %28 = phi ptr [ %27, %26 ], [ %15, %time_s_alloc.exit ]
  tail call void @llvm.memcpy.p0.p0.i64(ptr noundef nonnull align 8 dereferenceable(48) %28, ptr noundef nonnull align 8 dereferenceable(48) %2, i64 48, i1 false), !tbaa.struct !133
  ret i64 %10
}